; Function Attrs: nounwind uwtable
define void @av_vlog(ptr noundef %0, i32 noundef %1, ptr noundef %2, ptr noundef %3) local_unnamed_addr #1 {
  %.not = icmp eq ptr %0, null
  br i1 %.not, label %.thread, label %6

.thread:                                          ; preds = %4
  %5 = load ptr, ptr @av_log_callback, align 8, !tbaa !34
  br label %23

6:                                                ; preds = %4
  %7 = load ptr, ptr %0, align 8, !tbaa !4
  %8 = load ptr, ptr @av_log_callback, align 8, !tbaa !34
  %.not20 = icmp eq ptr %7, null
  br i1 %.not20, label %23, label %9

9:                                                ; preds = %6
  %10 = getelementptr inbounds nuw i8, ptr %7, i64 24
  %11 = load i32, ptr %10, align 8, !tbaa !23
  %12 = icmp sgt i32 %11, 3280641
  br i1 %12, label %13, label %23

13:                                               ; preds = %9
  %14 = getelementptr inbounds nuw i8, ptr %7, i64 28
  %15 = load i32, ptr %14, align 4, !tbaa !35
  %16 = icmp ne i32 %15, 0
  %17 = icmp sgt i32 %1, 7
  %or.cond = and i1 %17, %16
  br i1 %or.cond, label %18, label %23

18:                                               ; preds = %13
  %19 = sext i32 %15 to i64
  %20 = getelementptr inbounds i8, ptr %0, i64 %19
  %21 = load i32, ptr %20, align 4, !tbaa !17
  %22 = add nsw i32 %21, %1
  br label %23

23:                                               ; preds = %.thread, %18, %13, %9, %6
  %24 = phi ptr [ %8, %18 ], [ %8, %13 ], [ %8, %9 ], [ %8, %6 ], [ %5, %.thread ]
  %.0 = phi i32 [ %22, %18 ], [ %1, %13 ], [ %1, %9 ], [ %1, %6 ], [ %1, %.thread ]
  %.not21 = icmp eq ptr %24, null
  br i1 %.not21, label %26, label %25

25:                                               ; preds = %23
  tail call void %24(ptr noundef %0, i32 noundef %.0, ptr noundef %2, ptr noundef %3) #14
  br label %26

26:                                               ; preds = %25, %23
  ret void
}